ARM GAS  C:\Users\quintor2\AppData\Local\Temp\ccSaqBfL.s 			page 1


   1              		.syntax unified
   2              		.cpu cortex-m3
   3              		.fpu softvfp
   4              		.eabi_attribute 20, 1
   5              		.eabi_attribute 21, 1
   6              		.eabi_attribute 23, 3
   7              		.eabi_attribute 24, 1
   8              		.eabi_attribute 25, 1
   9              		.eabi_attribute 26, 1
  10              		.eabi_attribute 30, 1
  11              		.eabi_attribute 34, 1
  12              		.eabi_attribute 18, 4
  13              		.thumb
  14              		.file	"main.c"
  15              		.text
  16              	.Ltext0:
  17              		.cfi_sections	.debug_frame
  18              		.section	.text.main,"ax",%progbits
  19              		.align	2
  20              		.global	main
  21              		.thumb
  22              		.thumb_func
  23              		.type	main, %function
  24              	main:
  25              	.LFB63:
  26              		.file 1 ".\\main.c"
   1:.\main.c      **** /* ========================================
   2:.\main.c      ****  *
   3:.\main.c      ****  * Copyright YOUR COMPANY, THE YEAR
   4:.\main.c      ****  * All Rights Reserved
   5:.\main.c      ****  * UNPUBLISHED, LICENSED SOFTWARE.
   6:.\main.c      ****  *
   7:.\main.c      ****  * CONFIDENTIAL AND PROPRIETARY INFORMATION
   8:.\main.c      ****  * WHICH IS THE PROPERTY OF your company.
   9:.\main.c      ****  *
  10:.\main.c      ****  * ========================================
  11:.\main.c      **** */
  12:.\main.c      **** 
  13:.\main.c      **** #include <project.h>
  14:.\main.c      **** 
  15:.\main.c      **** int main()
  16:.\main.c      **** {
  27              		.loc 1 16 0
  28              		.cfi_startproc
  29              		@ args = 0, pretend = 0, frame = 24
  30              		@ frame_needed = 0, uses_anonymous_args = 0
  31 0000 30B5     		push	{r4, r5, lr}
  32              		.cfi_def_cfa_offset 12
  33              		.cfi_offset 4, -12
  34              		.cfi_offset 5, -8
  35              		.cfi_offset 14, -4
  36 0002 87B0     		sub	sp, sp, #28
  37              		.cfi_def_cfa_offset 40
  17:.\main.c      **** 	UART_1_Start();
  38              		.loc 1 17 0
  39 0004 FFF7FEFF 		bl	UART_1_Start
  40              	.LVL0:
ARM GAS  C:\Users\quintor2\AppData\Local\Temp\ccSaqBfL.s 			page 2


  18:.\main.c      **** 	LCD_Char_1_Start();
  41              		.loc 1 18 0
  42 0008 FFF7FEFF 		bl	LCD_Char_1_Start
  43              	.LVL1:
  19:.\main.c      ****     
  20:.\main.c      ****     char the_char;
  21:.\main.c      ****     int c_idx;
  22:.\main.c      ****     
  23:.\main.c      **** 
  24:.\main.c      **** 	char mystring[] = "Is it Rocky or Raki?\n";
  44              		.loc 1 24 0
  45 000c 6C46     		mov	r4, sp
  46 000e 134D     		ldr	r5, .L7
  47 0010 0FCD     		ldmia	r5!, {r0, r1, r2, r3}
  48 0012 0FC4     		stmia	r4!, {r0, r1, r2, r3}
  49 0014 95E80300 		ldmia	r5, {r0, r1}
  50 0018 44F8040B 		str	r0, [r4], #4
  51 001c 2180     		strh	r1, [r4]	@ movhi
  25:.\main.c      **** 
  26:.\main.c      **** 	//initialization 
  27:.\main.c      **** 	LCD_Char_1_Position(0,0);
  52              		.loc 1 27 0
  53 001e 0020     		movs	r0, #0
  54 0020 0146     		mov	r1, r0
  55 0022 FFF7FEFF 		bl	LCD_Char_1_Position
  56              	.LVL2:
  57              	.L5:
  16:.\main.c      **** 	UART_1_Start();
  58              		.loc 1 16 0
  59 0026 0025     		movs	r5, #0
  60              	.LVL3:
  61              	.L2:
  28:.\main.c      **** 	c_idx = 0;
  29:.\main.c      **** 	
  30:.\main.c      **** 
  31:.\main.c      **** 	//My forever loop out_str
  32:.\main.c      **** 	while(1)
  33:.\main.c      **** 	{
  34:.\main.c      **** 		UART_1_PutString(mystring);
  62              		.loc 1 34 0
  63 0028 6846     		mov	r0, sp
  64 002a FFF7FEFF 		bl	UART_1_PutString
  65              	.LVL4:
  35:.\main.c      ****         CyDelay(10);	
  66              		.loc 1 35 0
  67 002e 0A20     		movs	r0, #10
  68 0030 FFF7FEFF 		bl	CyDelay
  69              	.LVL5:
  36:.\main.c      **** 		the_char = UART_1_GetChar();
  70              		.loc 1 36 0
  71 0034 FFF7FEFF 		bl	UART_1_GetChar
  72              	.LVL6:
  37:.\main.c      **** 		if (the_char) 
  73              		.loc 1 37 0
  74 0038 0446     		mov	r4, r0
  75 003a 0028     		cmp	r0, #0
  76 003c F4D0     		beq	.L2
ARM GAS  C:\Users\quintor2\AppData\Local\Temp\ccSaqBfL.s 			page 3


  38:.\main.c      **** 		{
  39:.\main.c      **** 			if (c_idx == 0)
  77              		.loc 1 39 0
  78 003e 15B9     		cbnz	r5, .L3
  40:.\main.c      **** 			{
  41:.\main.c      **** 				LCD_Char_1_ClearDisplay();
  79              		.loc 1 41 0
  80 0040 0120     		movs	r0, #1
  81              	.LVL7:
  82 0042 FFF7FEFF 		bl	LCD_Char_1_WriteControl
  83              	.LVL8:
  84              	.L3:
  42:.\main.c      **** 			}
  43:.\main.c      **** 			
  44:.\main.c      **** 			LCD_Char_1_PutChar(the_char); 
  85              		.loc 1 44 0
  86 0046 2046     		mov	r0, r4
  87 0048 FFF7FEFF 		bl	LCD_Char_1_PutChar
  88              	.LVL9:
  45:.\main.c      **** 			++c_idx;
  89              		.loc 1 45 0
  90 004c 0135     		adds	r5, r5, #1
  91              	.LVL10:
  46:.\main.c      **** 			if (c_idx == 16) 
  92              		.loc 1 46 0
  93 004e 102D     		cmp	r5, #16
  94 0050 EAD1     		bne	.L2
  47:.\main.c      **** 			{ 
  48:.\main.c      **** 				LCD_Char_1_Position(0,0);
  95              		.loc 1 48 0
  96 0052 0020     		movs	r0, #0
  97 0054 0146     		mov	r1, r0
  98 0056 FFF7FEFF 		bl	LCD_Char_1_Position
  99              	.LVL11:
 100 005a E4E7     		b	.L5
 101              	.L8:
 102              		.align	2
 103              	.L7:
 104 005c 00000000 		.word	.LC0
 105              		.cfi_endproc
 106              	.LFE63:
 107              		.size	main, .-main
 108              		.section	.rodata.str1.4,"aMS",%progbits,1
 109              		.align	2
 110              	.LC0:
 111 0000 49732069 		.ascii	"Is it Rocky or Raki?\012\000"
 111      7420526F 
 111      636B7920 
 111      6F722052 
 111      616B693F 
 112 0016 0000     		.text
 113              	.Letext0:
 114              		.file 2 "c:\\program files (x86)\\cypress\\psoc creator\\3.3\\psoc creator\\import\\gnu\\arm\\4.9.
 115              		.file 3 "c:\\program files (x86)\\cypress\\psoc creator\\3.3\\psoc creator\\import\\gnu\\arm\\4.9.
 116              		.file 4 "Generated_Source\\PSoC5/cytypes.h"
 117              		.file 5 "Generated_Source\\PSoC5/UART_1.h"
 118              		.file 6 "Generated_Source\\PSoC5/LCD_Char_1.h"
ARM GAS  C:\Users\quintor2\AppData\Local\Temp\ccSaqBfL.s 			page 4


 119              		.file 7 "Generated_Source\\PSoC5/CyLib.h"
 120              		.file 8 "Generated_Source\\PSoC5/core_cm3.h"